; Function Attrs: nofree nosync nounwind memory(readwrite, inaccessiblemem: none) uwtable
define range(i32 0, 2) i32 @Llb_ManFlowVerifyCut_rec(ptr noundef readonly captures(none) %0, ptr noundef captures(none) %1) local_unnamed_addr #6 {
  %3 = getelementptr i8, ptr %0, i64 312
  %.val1423 = load i32, ptr %3, align 8, !tbaa !14
  %4 = getelementptr i8, ptr %1, i64 32
  %.val1524 = load i32, ptr %4, align 8, !tbaa !28
  %.not25 = icmp eq i32 %.val1524, %.val1423
  br i1 %.not25, label %.fold.split, label %.lr.ph

.lr.ph:                                           ; preds = %2, %tailrecurse
  %5 = phi ptr [ %18, %tailrecurse ], [ %4, %2 ]
  %.val1427 = phi i32 [ %.val14, %tailrecurse ], [ %.val1423, %2 ]
  %.tr2226 = phi ptr [ %17, %tailrecurse ], [ %1, %2 ]
  store i32 %.val1427, ptr %5, align 8, !tbaa !28
  %6 = getelementptr i8, ptr %.tr2226, i64 24
  %.val19 = load i64, ptr %6, align 8
  %7 = and i64 %.val19, 7
  switch i64 %7, label %8 [
    i64 1, label %.fold.split.loopexit32
    i64 2, label %.fold.split
  ]

8:                                                ; preds = %.lr.ph
  %9 = getelementptr i8, ptr %.tr2226, i64 8
  %.val16 = load ptr, ptr %9, align 8, !tbaa !31
  %10 = ptrtoint ptr %.val16 to i64
  %11 = and i64 %10, -2
  %12 = inttoptr i64 %11 to ptr
  %13 = tail call i32 @Llb_ManFlowVerifyCut_rec(ptr noundef nonnull %0, ptr noundef %12)
  %.not12 = icmp eq i32 %13, 0
  br i1 %.not12, label %.fold.split, label %tailrecurse

tailrecurse:                                      ; preds = %8
  %14 = getelementptr i8, ptr %.tr2226, i64 16
  %.val17 = load ptr, ptr %14, align 8, !tbaa !32
  %15 = ptrtoint ptr %.val17 to i64
  %16 = and i64 %15, -2
  %17 = inttoptr i64 %16 to ptr
  %.val14 = load i32, ptr %3, align 8, !tbaa !14
  %18 = getelementptr i8, ptr %17, i64 32
  %.val15 = load i32, ptr %18, align 8, !tbaa !28
  %.not = icmp eq i32 %.val15, %.val14
  br i1 %.not, label %.fold.split, label %.lr.ph

.fold.split.loopexit32:                           ; preds = %.lr.ph
  br label %.fold.split

.fold.split:                                      ; preds = %tailrecurse, %8, %.lr.ph, %.fold.split.loopexit32, %2
  %.0 = phi i32 [ 1, %2 ], [ 0, %.lr.ph ], [ 1, %tailrecurse ], [ 0, %8 ], [ 1, %.fold.split.loopexit32 ]
  ret i32 %.0
}